target datalayout = "e-m:e-p270:32:32-p271:32:32-p272:64:64-i64:64-i128:128-f80:128-n8:16:32:64-S128"
target triple = "x86_64-pc-linux-gnu"

@g_argv = internal global ptr null, align 8
@errstream = internal global ptr null, align 8
@.str.66 = private unnamed_addr constant [3 x i8] c"--\00", align 1

; Function Attrs: nounwind null_pointer_is_valid sspstrong uwtable
define internal i32 @argindex(i32 noundef %0) #2 {
  %2 = alloca i32, align 4
  %3 = alloca i32, align 4
  %4 = alloca i32, align 4
  %5 = alloca i32, align 4
  %6 = alloca i32, align 4
  store i32 %0, ptr %3, align 4
  call void @llvm.lifetime.start.p0(i64 4, ptr %4) #18
  call void @llvm.lifetime.start.p0(i64 4, ptr %5) #18
  store i32 0, ptr %5, align 4
  %7 = load ptr, ptr @g_argv, align 8
  %8 = icmp ne ptr %7, null
  br i1 %8, label %9, label %74

9:                                                ; preds = %1
  %10 = load ptr, ptr @g_argv, align 8
  %11 = load ptr, ptr %10, align 8
  %12 = icmp ne ptr %11, null
  br i1 %12, label %13, label %74

13:                                               ; preds = %9
  store i32 1, ptr %4, align 4
  br label %14

14:                                               ; preds = %70, %13
  %15 = load ptr, ptr @g_argv, align 8
  %16 = load i32, ptr %4, align 4
  %17 = sext i32 %16 to i64
  %18 = getelementptr ptr, ptr %15, i64 %17
  %19 = load ptr, ptr %18, align 8
  %20 = icmp ne ptr %19, null
  br i1 %20, label %21, label %73

21:                                               ; preds = %14
  %22 = load i32, ptr %5, align 4
  %23 = icmp ne i32 %22, 0
  br i1 %23, label %52, label %24

24:                                               ; preds = %21
  %25 = load ptr, ptr @g_argv, align 8
  %26 = load i32, ptr %4, align 4
  %27 = sext i32 %26 to i64
  %28 = getelementptr ptr, ptr %25, i64 %27
  %29 = load ptr, ptr %28, align 8
  %30 = getelementptr i8, ptr %29, i64 0
  %31 = load i8, ptr %30, align 1
  %32 = sext i8 %31 to i32
  %33 = icmp eq i32 %32, 45
  br i1 %33, label %60, label %34

34:                                               ; preds = %24
  %35 = load ptr, ptr @g_argv, align 8
  %36 = load i32, ptr %4, align 4
  %37 = sext i32 %36 to i64
  %38 = getelementptr ptr, ptr %35, i64 %37
  %39 = load ptr, ptr %38, align 8
  %40 = getelementptr i8, ptr %39, i64 0
  %41 = load i8, ptr %40, align 1
  %42 = sext i8 %41 to i32
  %43 = icmp eq i32 %42, 43
  br i1 %43, label %60, label %44

44:                                               ; preds = %34
  %45 = load ptr, ptr @g_argv, align 8
  %46 = load i32, ptr %4, align 4
  %47 = sext i32 %46 to i64
  %48 = getelementptr ptr, ptr %45, i64 %47
  %49 = load ptr, ptr %48, align 8
  %50 = call ptr @strchr(ptr noundef %49, i32 noundef 61) #22
  %51 = icmp ne ptr %50, null
  br i1 %51, label %60, label %52

52:                                               ; preds = %44, %21
  %53 = load i32, ptr %3, align 4
  %54 = icmp eq i32 %53, 0
  br i1 %54, label %55, label %57

55:                                               ; preds = %52
  %56 = load i32, ptr %4, align 4
  store i32 %56, ptr %2, align 4
  store i32 1, ptr %6, align 4
  br label %75

57:                                               ; preds = %52
  %58 = load i32, ptr %3, align 4
  %59 = add i32 %58, -1
  store i32 %59, ptr %3, align 4
  br label %60

60:                                               ; preds = %57, %44, %34, %24
  %61 = load ptr, ptr @g_argv, align 8
  %62 = load i32, ptr %4, align 4
  %63 = sext i32 %62 to i64
  %64 = getelementptr ptr, ptr %61, i64 %63
  %65 = load ptr, ptr %64, align 8
  %66 = call i32 @strcmp(ptr noundef %65, ptr noundef @.str.66) #22
  %67 = icmp eq i32 %66, 0
  br i1 %67, label %68, label %69

68:                                               ; preds = %60
  store i32 1, ptr %5, align 4
  br label %69

69:                                               ; preds = %68, %60
  br label %70

70:                                               ; preds = %69
  %71 = load i32, ptr %4, align 4
  %72 = add i32 %71, 1
  store i32 %72, ptr %4, align 4
  br label %14, !llvm.loop !183

73:                                               ; preds = %14
  br label %74

74:                                               ; preds = %73, %9, %1
  store i32 -1, ptr %2, align 4
  store i32 1, ptr %6, align 4
  br label %75

75:                                               ; preds = %74, %55
  call void @llvm.lifetime.end.p0(i64 4, ptr %5) #18
  call void @llvm.lifetime.end.p0(i64 4, ptr %4) #18
  %76 = load i32, ptr %2, align 4
  ret i32 %76
}

; Function Attrs: null_pointer_is_valid sspstrong uwtable
define hidden void @OptErr(i32 noundef %0) #0 {
  %2 = alloca i32, align 4
  %3 = alloca i32, align 4
  store i32 %0, ptr %2, align 4
  call void @llvm.lifetime.start.p0(i64 4, ptr %3) #18
  %4 = load i32, ptr %2, align 4
  %5 = call i32 @argindex(i32 noundef %4)
  store i32 %5, ptr %3, align 4
  %6 = load i32, ptr %3, align 4
  %7 = icmp sge i32 %6, 0
  br i1 %7, label %8, label %11

8:                                                ; preds = %1
  %9 = load i32, ptr %3, align 4
  %10 = load ptr, ptr @errstream, align 8
  call void @errline(i32 noundef %9, i32 noundef 0, ptr noundef %10)
  br label %11

11:                                               ; preds = %8, %1
  call void @llvm.lifetime.end.p0(i64 4, ptr %3) #18
  ret void
}