; Function Attrs: null_pointer_is_valid sspstrong uwtable
define hidden void @OptErr(i32 noundef %0) local_unnamed_addr #0 {
  %2 = load ptr, ptr @g_argv, align 8
  %.not.i = icmp eq ptr %2, null
  br i1 %.not.i, label %argindex.exit.thread, label %3

3:                                                ; preds = %1
  %4 = load ptr, ptr %2, align 8
  %.not18.i = icmp eq ptr %4, null
  br i1 %.not18.i, label %argindex.exit.thread, label %.preheader.i

.preheader.i:                                     ; preds = %3
  %5 = getelementptr i8, ptr %2, i64 8
  %6 = load ptr, ptr %5, align 8
  %.not1922.i = icmp eq ptr %6, null
  br i1 %.not1922.i, label %argindex.exit.thread, label %.lr.ph.i

.lr.ph.i:                                         ; preds = %.preheader.i, %.tail.i
  %7 = phi ptr [ %26, %.tail.i ], [ %6, %.preheader.i ]
  %.025.i = phi i32 [ %spec.select.i, %.tail.i ], [ 0, %.preheader.i ]
  %.01124.i = phi i32 [ %23, %.tail.i ], [ 1, %.preheader.i ]
  %.01223.i = phi i32 [ %.113.i, %.tail.i ], [ %0, %.preheader.i ]
  %.not20.i = icmp eq i32 %.025.i, 0
  br i1 %.not20.i, label %8, label %12

8:                                                ; preds = %.lr.ph.i
  %9 = load i8, ptr %7, align 1
  switch i8 %9, label %10 [
    i8 45, label %sub_0.i
    i8 43, label %sub_0.i
  ]

10:                                               ; preds = %8
  %11 = tail call ptr @strchr(ptr noundef nonnull dereferenceable(1) %7, i32 noundef 61) #45
  %.not21.i = icmp eq ptr %11, null
  br i1 %.not21.i, label %12, label %sub_0.i

12:                                               ; preds = %10, %.lr.ph.i
  %13 = icmp eq i32 %.01223.i, 0
  br i1 %13, label %argindex.exit, label %14

14:                                               ; preds = %12
  %15 = add i32 %.01223.i, -1
  %.pre.i = load i8, ptr %7, align 1
  br label %sub_0.i

sub_0.i:                                          ; preds = %14, %10, %8, %8
  %16 = phi i8 [ %.pre.i, %14 ], [ %9, %8 ], [ %9, %10 ], [ %9, %8 ]
  %.113.i = phi i32 [ %15, %14 ], [ %.01223.i, %8 ], [ %.01223.i, %10 ], [ %.01223.i, %8 ]
  %.not28.i = icmp eq i8 %16, 45
  br i1 %.not28.i, label %sub_1.i, label %.tail.i

sub_1.i:                                          ; preds = %sub_0.i
  %17 = getelementptr inbounds nuw i8, ptr %7, i64 1
  %18 = load i8, ptr %17, align 1
  %.not29.i = icmp eq i8 %18, 45
  br i1 %.not29.i, label %sub_2.i, label %.tail.i

sub_2.i:                                          ; preds = %sub_1.i
  %19 = getelementptr inbounds nuw i8, ptr %7, i64 2
  %20 = load i8, ptr %19, align 1
  %21 = icmp eq i8 %20, 0
  %22 = select i1 %21, i32 1, i32 %.025.i
  br label %.tail.i

.tail.i:                                          ; preds = %sub_2.i, %sub_1.i, %sub_0.i
  %spec.select.i = phi i32 [ %.025.i, %sub_0.i ], [ %.025.i, %sub_1.i ], [ %22, %sub_2.i ]
  %23 = add i32 %.01124.i, 1
  %24 = sext i32 %23 to i64
  %25 = getelementptr ptr, ptr %2, i64 %24
  %26 = load ptr, ptr %25, align 8
  %.not19.i = icmp eq ptr %26, null
  br i1 %.not19.i, label %argindex.exit.thread, label %.lr.ph.i, !llvm.loop !91

argindex.exit:                                    ; preds = %12
  %27 = icmp sgt i32 %.01124.i, -1
  br i1 %27, label %28, label %argindex.exit.thread

28:                                               ; preds = %argindex.exit
  %29 = load ptr, ptr @errstream, align 8
  tail call fastcc void @errline(i32 noundef %.01124.i, i32 noundef 0, ptr noundef %29)
  br label %argindex.exit.thread

argindex.exit.thread:                             ; preds = %.tail.i, %.preheader.i, %1, %3, %28, %argindex.exit
  ret void
}